target datalayout = "e-m:e-p270:32:32-p271:32:32-p272:64:64-i64:64-i128:128-f80:128-n8:16:32:64-S128"
target triple = "x86_64-pc-linux-gnu"

%struct.conf_module_st = type { ptr, ptr, ptr, ptr, i32, ptr }

@module_list_lock = internal global ptr null, align 8
@supported_modules = internal global ptr null, align 8

; Function Attrs: inlinehint nounwind uwtable
define internal void @sk_CONF_MODULE_pop_free(ptr noundef %0, ptr noundef %1) #3 {
  %3 = alloca ptr, align 8
  %4 = alloca ptr, align 8
  store ptr %0, ptr %3, align 8, !tbaa !33
  store ptr %1, ptr %4, align 8, !tbaa !16
  %5 = load ptr, ptr %3, align 8, !tbaa !33
  %6 = load ptr, ptr %4, align 8, !tbaa !16
  call void @OPENSSL_sk_pop_free(ptr noundef %5, ptr noundef %6)
  ret void
}

; Function Attrs: inlinehint nounwind uwtable
define internal void @sk_CONF_MODULE_free(ptr noundef %0) #3 {
  %2 = alloca ptr, align 8
  store ptr %0, ptr %2, align 8, !tbaa !33
  %3 = load ptr, ptr %2, align 8, !tbaa !33
  call void @OPENSSL_sk_free(ptr noundef %3)
  ret void
}

; Function Attrs: inlinehint nounwind uwtable
define internal i32 @sk_CONF_MODULE_push(ptr noundef %0, ptr noundef %1) #3 {
  %3 = alloca ptr, align 8
  %4 = alloca ptr, align 8
  store ptr %0, ptr %3, align 8, !tbaa !33
  store ptr %1, ptr %4, align 8, !tbaa !27
  %5 = load ptr, ptr %3, align 8, !tbaa !33
  %6 = load ptr, ptr %4, align 8, !tbaa !27
  %7 = call i32 @OPENSSL_sk_push(ptr noundef %5, ptr noundef %6)
  ret i32 %7
}

; Function Attrs: inlinehint nounwind uwtable
define internal ptr @sk_CONF_MODULE_delete(ptr noundef %0, i32 noundef %1) #3 {
  %3 = alloca ptr, align 8
  %4 = alloca i32, align 4
  store ptr %0, ptr %3, align 8, !tbaa !33
  store i32 %1, ptr %4, align 4, !tbaa !14
  %5 = load ptr, ptr %3, align 8, !tbaa !33
  %6 = load i32, ptr %4, align 4, !tbaa !14
  %7 = call ptr @OPENSSL_sk_delete(ptr noundef %5, i32 noundef %6)
  ret ptr %7
}

; Function Attrs: inlinehint nounwind uwtable
define internal ptr @sk_CONF_MODULE_value(ptr noundef %0, i32 noundef %1) #3 {
  %3 = alloca ptr, align 8
  %4 = alloca i32, align 4
  store ptr %0, ptr %3, align 8, !tbaa !33
  store i32 %1, ptr %4, align 4, !tbaa !14
  %5 = load ptr, ptr %3, align 8, !tbaa !33
  %6 = load i32, ptr %4, align 4, !tbaa !14
  %7 = call ptr @OPENSSL_sk_value(ptr noundef %5, i32 noundef %6)
  ret ptr %7
}

; Function Attrs: inlinehint nounwind uwtable
define internal i32 @sk_CONF_MODULE_num(ptr noundef %0) #3 {
  %2 = alloca ptr, align 8
  store ptr %0, ptr %2, align 8, !tbaa !33
  %3 = load ptr, ptr %2, align 8, !tbaa !33
  %4 = call i32 @OPENSSL_sk_num(ptr noundef %3)
  ret i32 %4
}

; Function Attrs: inlinehint nounwind uwtable
define internal ptr @sk_CONF_MODULE_new_null() #3 {
  %1 = call ptr @OPENSSL_sk_new_null()
  ret ptr %1
}

; Function Attrs: inlinehint nounwind uwtable
define internal ptr @sk_CONF_MODULE_dup(ptr noundef %0) #3 {
  %2 = alloca ptr, align 8
  store ptr %0, ptr %2, align 8, !tbaa !33
  %3 = load ptr, ptr %2, align 8, !tbaa !33
  %4 = call ptr @OPENSSL_sk_dup(ptr noundef %3)
  ret ptr %4
}

; Function Attrs: nounwind uwtable
define void @CONF_modules_unload(i32 noundef %0) #0 {
  %2 = alloca i32, align 4
  %3 = alloca i32, align 4
  %4 = alloca ptr, align 8
  %5 = alloca ptr, align 8
  %6 = alloca ptr, align 8
  %7 = alloca ptr, align 8
  %8 = alloca i32, align 4
  store i32 %0, ptr %2, align 4, !tbaa !14
  call void @llvm.lifetime.start.p0(i64 4, ptr %3) #6
  call void @llvm.lifetime.start.p0(i64 8, ptr %4) #6
  call void @llvm.lifetime.start.p0(i64 8, ptr %5) #6
  call void @llvm.lifetime.start.p0(i64 8, ptr %6) #6
  call void @llvm.lifetime.start.p0(i64 8, ptr %7) #6
  %9 = call i32 @conf_modules_finish_int()
  %10 = icmp ne i32 %9, 0
  br i1 %10, label %12, label %11

11:                                               ; preds = %1
  store i32 1, ptr %8, align 4
  br label %67

12:                                               ; preds = %1
  %13 = load ptr, ptr @module_list_lock, align 8, !tbaa !31
  call void @ossl_rcu_write_lock(ptr noundef %13)
  %14 = call ptr @ossl_rcu_uptr_deref(ptr noundef @supported_modules)
  store ptr %14, ptr %5, align 8, !tbaa !33
  %15 = load ptr, ptr %5, align 8, !tbaa !33
  %16 = call ptr @sk_CONF_MODULE_dup(ptr noundef %15)
  store ptr %16, ptr %6, align 8, !tbaa !33
  %17 = load ptr, ptr %6, align 8, !tbaa !33
  %18 = icmp eq ptr %17, null
  br i1 %18, label %19, label %21

19:                                               ; preds = %12
  %20 = load ptr, ptr @module_list_lock, align 8, !tbaa !31
  call void @ossl_rcu_write_unlock(ptr noundef %20)
  store i32 1, ptr %8, align 4
  br label %67

21:                                               ; preds = %12
  %22 = call ptr @sk_CONF_MODULE_new_null()
  store ptr %22, ptr %7, align 8, !tbaa !33
  %23 = load ptr, ptr %6, align 8, !tbaa !33
  %24 = call i32 @sk_CONF_MODULE_num(ptr noundef %23)
  %25 = sub nsw i32 %24, 1
  store i32 %25, ptr %3, align 4, !tbaa !14
  br label %26

26:                                               ; preds = %53, %21
  %27 = load i32, ptr %3, align 4, !tbaa !14
  %28 = icmp sge i32 %27, 0
  br i1 %28, label %29, label %56

29:                                               ; preds = %26
  %30 = load ptr, ptr %6, align 8, !tbaa !33
  %31 = load i32, ptr %3, align 4, !tbaa !14
  %32 = call ptr @sk_CONF_MODULE_value(ptr noundef %30, i32 noundef %31)
  store ptr %32, ptr %4, align 8, !tbaa !27
  %33 = load ptr, ptr %4, align 8, !tbaa !27
  %34 = getelementptr inbounds nuw %struct.conf_module_st, ptr %33, i32 0, i32 4
  %35 = load i32, ptr %34, align 8, !tbaa !35
  %36 = icmp sgt i32 %35, 0
  br i1 %36, label %42, label %37

37:                                               ; preds = %29
  %38 = load ptr, ptr %4, align 8, !tbaa !27
  %39 = getelementptr inbounds nuw %struct.conf_module_st, ptr %38, i32 0, i32 0
  %40 = load ptr, ptr %39, align 8, !tbaa !38
  %41 = icmp ne ptr %40, null
  br i1 %41, label %46, label %42

42:                                               ; preds = %37, %29
  %43 = load i32, ptr %2, align 4, !tbaa !14
  %44 = icmp ne i32 %43, 0
  br i1 %44, label %46, label %45

45:                                               ; preds = %42
  br label %53

46:                                               ; preds = %42, %37
  %47 = load ptr, ptr %6, align 8, !tbaa !33
  %48 = load i32, ptr %3, align 4, !tbaa !14
  %49 = call ptr @sk_CONF_MODULE_delete(ptr noundef %47, i32 noundef %48)
  %50 = load ptr, ptr %7, align 8, !tbaa !33
  %51 = load ptr, ptr %4, align 8, !tbaa !27
  %52 = call i32 @sk_CONF_MODULE_push(ptr noundef %50, ptr noundef %51)
  br label %53

53:                                               ; preds = %46, %45
  %54 = load i32, ptr %3, align 4, !tbaa !14
  %55 = add nsw i32 %54, -1
  store i32 %55, ptr %3, align 4, !tbaa !14
  br label %26, !llvm.loop !39

56:                                               ; preds = %26
  %57 = load ptr, ptr %6, align 8, !tbaa !33
  %58 = call i32 @sk_CONF_MODULE_num(ptr noundef %57)
  %59 = icmp eq i32 %58, 0
  br i1 %59, label %60, label %62

60:                                               ; preds = %56
  %61 = load ptr, ptr %6, align 8, !tbaa !33
  call void @sk_CONF_MODULE_free(ptr noundef %61)
  store ptr null, ptr %6, align 8, !tbaa !33
  br label %62

62:                                               ; preds = %60, %56
  call void @ossl_rcu_assign_uptr(ptr noundef @supported_modules, ptr noundef %6)
  %63 = load ptr, ptr @module_list_lock, align 8, !tbaa !31
  call void @ossl_rcu_write_unlock(ptr noundef %63)
  %64 = load ptr, ptr @module_list_lock, align 8, !tbaa !31
  call void @ossl_synchronize_rcu(ptr noundef %64)
  %65 = load ptr, ptr %5, align 8, !tbaa !33
  call void @sk_CONF_MODULE_free(ptr noundef %65)
  %66 = load ptr, ptr %7, align 8, !tbaa !33
  call void @sk_CONF_MODULE_pop_free(ptr noundef %66, ptr noundef @module_free)
  store i32 0, ptr %8, align 4
  br label %67

67:                                               ; preds = %62, %19, %11
  call void @llvm.lifetime.end.p0(i64 8, ptr %7) #6
  call void @llvm.lifetime.end.p0(i64 8, ptr %6) #6
  call void @llvm.lifetime.end.p0(i64 8, ptr %5) #6
  call void @llvm.lifetime.end.p0(i64 8, ptr %4) #6
  call void @llvm.lifetime.end.p0(i64 4, ptr %3) #6
  %68 = load i32, ptr %8, align 4
  switch i32 %68, label %70 [
    i32 0, label %69
    i32 1, label %69
  ]

69:                                               ; preds = %67, %67
  ret void

70:                                               ; preds = %67
  unreachable
}