; Function Attrs: nounwind uwtable
define void @CONF_modules_unload(i32 noundef %0) local_unnamed_addr #0 {
  %2 = alloca ptr, align 8
  call void @llvm.lifetime.start.p0(i64 8, ptr nonnull %2) #7
  %3 = tail call fastcc i32 @conf_modules_finish_int()
  %.not = icmp eq i32 %3, 0
  br i1 %.not, label %35, label %4

4:                                                ; preds = %1
  %5 = load ptr, ptr @module_list_lock, align 8, !tbaa !18
  tail call void @ossl_rcu_write_lock(ptr noundef %5) #7
  %6 = tail call ptr @ossl_rcu_uptr_deref(ptr noundef nonnull @supported_modules) #7
  %7 = tail call ptr @OPENSSL_sk_dup(ptr noundef %6) #7
  store ptr %7, ptr %2, align 8, !tbaa !38
  %8 = icmp eq ptr %7, null
  br i1 %8, label %9, label %11

9:                                                ; preds = %4
  %10 = load ptr, ptr @module_list_lock, align 8, !tbaa !18
  tail call void @ossl_rcu_write_unlock(ptr noundef %10) #7
  br label %35

11:                                               ; preds = %4
  %12 = tail call ptr @OPENSSL_sk_new_null() #7
  %13 = tail call i32 @OPENSSL_sk_num(ptr noundef nonnull %7) #7
  %14 = icmp sgt i32 %13, 0
  br i1 %14, label %.lr.ph, label %._crit_edge

.lr.ph:                                           ; preds = %11
  %.013 = add nsw i32 %13, -1
  %.not17 = icmp eq i32 %0, 0
  br i1 %.not17, label %.lr.ph.split.split.us, label %.lr.ph.split.us.split

.lr.ph.split.us.split:                            ; preds = %.lr.ph, %.lr.ph.split.us.split
  %.014.us = phi i32 [ %.0.us, %.lr.ph.split.us.split ], [ %.013, %.lr.ph ]
  %15 = tail call ptr @OPENSSL_sk_value(ptr noundef nonnull %7, i32 noundef %.014.us) #7
  %16 = tail call ptr @OPENSSL_sk_delete(ptr noundef nonnull %7, i32 noundef range(i32 0, 2147483647) %.014.us) #7
  %17 = tail call i32 @OPENSSL_sk_push(ptr noundef %12, ptr noundef nonnull %15) #7
  %.0.us = add nsw i32 %.014.us, -1
  %.not21 = icmp eq i32 %.014.us, 0
  br i1 %.not21, label %._crit_edge, label %.lr.ph.split.us.split, !llvm.loop !40

.lr.ph.split.split.us:                            ; preds = %.lr.ph, %27
  %.014.us15 = phi i32 [ %.0.us16, %27 ], [ %.013, %.lr.ph ]
  %18 = tail call ptr @OPENSSL_sk_value(ptr noundef nonnull %7, i32 noundef %.014.us15) #7
  %19 = getelementptr inbounds nuw i8, ptr %18, i64 32
  %20 = load i32, ptr %19, align 8, !tbaa !34
  %21 = icmp sgt i32 %20, 0
  br i1 %21, label %27, label %22

22:                                               ; preds = %.lr.ph.split.split.us
  %23 = load ptr, ptr %18, align 8, !tbaa !41
  %.not18 = icmp eq ptr %23, null
  br i1 %.not18, label %27, label %24

24:                                               ; preds = %22
  %25 = tail call ptr @OPENSSL_sk_delete(ptr noundef nonnull %7, i32 noundef range(i32 0, 2147483647) %.014.us15) #7
  %26 = tail call i32 @OPENSSL_sk_push(ptr noundef %12, ptr noundef nonnull %18) #7
  br label %27

27:                                               ; preds = %.lr.ph.split.split.us, %24, %22
  %.0.us16 = add nsw i32 %.014.us15, -1
  %28 = icmp sgt i32 %.014.us15, 0
  br i1 %28, label %.lr.ph.split.split.us, label %._crit_edge, !llvm.loop !40

._crit_edge:                                      ; preds = %.lr.ph.split.us.split, %27, %11
  %29 = tail call i32 @OPENSSL_sk_num(ptr noundef nonnull %7) #7
  %30 = icmp eq i32 %29, 0
  br i1 %30, label %31, label %32

31:                                               ; preds = %._crit_edge
  tail call void @OPENSSL_sk_free(ptr noundef nonnull %7) #7
  store ptr null, ptr %2, align 8, !tbaa !38
  br label %32

32:                                               ; preds = %31, %._crit_edge
  call void @ossl_rcu_assign_uptr(ptr noundef nonnull @supported_modules, ptr noundef nonnull %2) #7
  %33 = load ptr, ptr @module_list_lock, align 8, !tbaa !18
  call void @ossl_rcu_write_unlock(ptr noundef %33) #7
  %34 = load ptr, ptr @module_list_lock, align 8, !tbaa !18
  call void @ossl_synchronize_rcu(ptr noundef %34) #7
  call void @OPENSSL_sk_free(ptr noundef %6) #7
  call void @OPENSSL_sk_pop_free(ptr noundef %12, ptr noundef nonnull @module_free) #7
  br label %35

35:                                               ; preds = %1, %32, %9
  call void @llvm.lifetime.end.p0(i64 8, ptr nonnull %2) #7
  ret void
}